	.file	"main.cpp"
	.text
.Ltext0:
	.section	.rodata
	.type	_ZStL19piecewise_construct, @object
	.size	_ZStL19piecewise_construct, 1
_ZStL19piecewise_construct:
	.zero	1
	.local	_ZStL8__ioinit
	.comm	_ZStL8__ioinit,1,1
	.text
	.globl	main
	.type	main, @function
main:
.LFB1522:
	.file 1 "main.cpp"
	.loc 1 5 1
	.cfi_startproc
	endbr64
	pushq	%rbp
	.cfi_def_cfa_offset 16
	.cfi_offset 6, -16
	movq	%rsp, %rbp
	.cfi_def_cfa_register 6
	.loc 1 6 5
	movl	$1, -12(%rbp)
	.loc 1 7 5
	movl	$2, -8(%rbp)
	.loc 1 8 5
	movl	-12(%rbp), %edx
	movl	-8(%rbp), %eax
	addl	%edx, %eax
	movl	%eax, -4(%rbp)
	.loc 1 10 8
	movl	$0, %eax
	.loc 1 11 1
	popq	%rbp
	.cfi_def_cfa 7, 8
	ret
	.cfi_endproc
.LFE1522:
	.size	main, .-main
	.type	_Z41__static_initialization_and_destruction_0ii, @function
_Z41__static_initialization_and_destruction_0ii:
.LFB2003:
	.loc 1 11 1
	.cfi_startproc
	endbr64
	pushq	%rbp
	.cfi_def_cfa_offset 16
	.cfi_offset 6, -16
	movq	%rsp, %rbp
	.cfi_def_cfa_register 6
	subq	$16, %rsp
	movl	%edi, -4(%rbp)
	movl	%esi, -8(%rbp)
	.loc 1 11 1
	cmpl	$1, -4(%rbp)
	jne	.L5
	.loc 1 11 1 is_stmt 0 discriminator 1
	cmpl	$65535, -8(%rbp)
	jne	.L5
	.file 2 "/usr/include/c++/9/iostream"
	.loc 2 74 25 is_stmt 1
	leaq	_ZStL8__ioinit(%rip), %rdi
	call	_ZNSt8ios_base4InitC1Ev@PLT
	leaq	__dso_handle(%rip), %rdx
	leaq	_ZStL8__ioinit(%rip), %rsi
	movq	_ZNSt8ios_base4InitD1Ev@GOTPCREL(%rip), %rax
	movq	%rax, %rdi
	call	__cxa_atexit@PLT
.L5:
	.loc 1 11 1
	nop
	leave
	.cfi_def_cfa 7, 8
	ret
	.cfi_endproc
.LFE2003:
	.size	_Z41__static_initialization_and_destruction_0ii, .-_Z41__static_initialization_and_destruction_0ii
	.type	_GLOBAL__sub_I_main, @function
_GLOBAL__sub_I_main:
.LFB2004:
	.loc 1 11 1
	.cfi_startproc
	endbr64
	pushq	%rbp
	.cfi_def_cfa_offset 16
	.cfi_offset 6, -16
	movq	%rsp, %rbp
	.cfi_def_cfa_register 6
	.loc 1 11 1
	movl	$65535, %esi
	movl	$1, %edi
	call	_Z41__static_initialization_and_destruction_0ii
	popq	%rbp
	.cfi_def_cfa 7, 8
	ret
	.cfi_endproc
.LFE2004:
	.size	_GLOBAL__sub_I_main, .-_GLOBAL__sub_I_main
	.section	.init_array,"aw"
	.align 8
	.quad	_GLOBAL__sub_I_main
	.text
.Letext0:
	.file 3 "/usr/include/c++/9/cwchar"
	.file 4 "/usr/include/c++/9/new"
	.file 5 "/usr/include/c++/9/bits/exception_ptr.h"
	.file 6 "/usr/include/c++/9/type_traits"
	.file 7 "/usr/include/x86_64-linux-gnu/c++/9/bits/c++config.h"
	.file 8 "/usr/include/c++/9/bits/cpp_type_traits.h"
	.file 9 "/usr/include/c++/9/bits/stl_pair.h"
	.file 10 "/usr/include/c++/9/debug/debug.h"
	.file 11 "/usr/include/c++/9/bits/char_traits.h"
	.file 12 "/usr/include/c++/9/cstdint"
	.file 13 "/usr/include/c++/9/clocale"
	.file 14 "/usr/include/c++/9/cstdlib"
	.file 15 "/usr/include/c++/9/cstdio"
	.file 16 "/usr/include/c++/9/bits/basic_string.h"
	.file 17 "/usr/include/c++/9/system_error"
	.file 18 "/usr/include/c++/9/bits/ios_base.h"
	.file 19 "/usr/include/c++/9/cwctype"
	.file 20 "/usr/include/c++/9/iosfwd"
	.file 21 "/usr/include/c++/9/bits/predefined_ops.h"
	.file 22 "/usr/include/c++/9/ext/new_allocator.h"
	.file 23 "/usr/include/c++/9/ext/numeric_traits.h"
	.file 24 "/usr/lib/gcc/x86_64-linux-gnu/9/include/stddef.h"
	.file 25 "<built-in>"
	.file 26 "/usr/include/x86_64-linux-gnu/bits/types/wint_t.h"
	.file 27 "/usr/include/x86_64-linux-gnu/bits/types/__mbstate_t.h"
	.file 28 "/usr/include/x86_64-linux-gnu/bits/types/mbstate_t.h"
	.file 29 "/usr/include/x86_64-linux-gnu/bits/types/__FILE.h"
	.file 30 "/usr/include/x86_64-linux-gnu/bits/types/struct_FILE.h"
	.file 31 "/usr/include/x86_64-linux-gnu/bits/types/FILE.h"
	.file 32 "/usr/include/wchar.h"
	.file 33 "/usr/include/x86_64-linux-gnu/bits/types/struct_tm.h"
	.file 34 "/usr/include/x86_64-linux-gnu/bits/types.h"
	.file 35 "/usr/include/x86_64-linux-gnu/bits/stdint-intn.h"
	.file 36 "/usr/include/x86_64-linux-gnu/bits/stdint-uintn.h"
	.file 37 "/usr/include/stdint.h"
	.file 38 "/usr/include/locale.h"
	.file 39 "/usr/include/time.h"
	.file 40 "/usr/include/x86_64-linux-gnu/c++/9/bits/atomic_word.h"
	.file 41 "/usr/include/stdlib.h"
	.file 42 "/usr/include/x86_64-linux-gnu/bits/types/__fpos_t.h"
	.file 43 "/usr/include/stdio.h"
	.file 44 "/usr/include/x86_64-linux-gnu/bits/sys_errlist.h"
	.file 45 "/usr/include/errno.h"
	.file 46 "/usr/include/x86_64-linux-gnu/bits/wctype-wchar.h"
	.file 47 "/usr/include/wctype.h"
	.section	.note.GNU-stack,"",@progbits
	.section	.note.gnu.property,"a"
	.align 8
	.long	 1f - 0f
	.long	 4f - 1f
	.long	 5
0:
	.string	 "GNU"
1:
	.align 8
	.long	 0xc0000002
	.long	 3f - 2f
2:
	.long	 0x3
3:
	.align 8
4:
